target datalayout = "e-m:e-p270:32:32-p271:32:32-p272:64:64-i64:64-i128:128-f80:128-n8:16:32:64-S128"
target triple = "x86_64-pc-linux-gnu"

%"class.llvm::ArrayRef" = type { ptr, i64 }

@_ZN4llvm13DICompileUnitC1ERNS_11LLVMContextENS_8Metadata11StorageTypeEjbjjmbbjbNS_8ArrayRefIPS3_EE = unnamed_addr alias void (ptr, ptr, i32, i32, i1, i32, i32, i64, i1, i1, i32, i1, ptr), ptr @_ZN4llvm13DICompileUnitC2ERNS_11LLVMContextENS_8Metadata11StorageTypeEjbjjmbbjbNS_8ArrayRefIPS3_EE

; Function Attrs: mustprogress nounwind uwtable
define linkonce_odr noundef ptr @_ZN4llvm6MDNode9storeImplINS_13DICompileUnitEEEPT_S4_NS_8Metadata11StorageTypeE(ptr noundef %0, i32 noundef %1) #1 comdat align 2 {
  %3 = alloca ptr, align 8
  %4 = alloca i32, align 4
  store ptr %0, ptr %3, align 8
  store i32 %1, ptr %4, align 4
  %5 = load i32, ptr %4, align 4
  switch i32 %5, label %10 [
    i32 0, label %6
    i32 1, label %7
    i32 2, label %9
  ]

6:                                                ; preds = %2
  unreachable

7:                                                ; preds = %2
  %8 = load ptr, ptr %3, align 8
  call void @_ZN4llvm6MDNode22storeDistinctInContextEv(ptr noundef nonnull align 8 dereferenceable(16) %8)
  br label %10

9:                                                ; preds = %2
  br label %10

10:                                               ; preds = %9, %7, %2
  %11 = load ptr, ptr %3, align 8
  ret ptr %11
}

; Function Attrs: mustprogress nounwind uwtable
define linkonce_odr hidden void @_ZN4llvm8ArrayRefIPNS_8MetadataEEC2ILm11EEERAT__KS2_(ptr noundef nonnull align 8 dereferenceable(16) %0, ptr noundef nonnull align 8 dereferenceable(88) %1) unnamed_addr #1 comdat align 2 {
  %3 = alloca ptr, align 8
  %4 = alloca ptr, align 8
  store ptr %0, ptr %3, align 8
  store ptr %1, ptr %4, align 8
  %5 = load ptr, ptr %3, align 8
  %6 = getelementptr inbounds nuw %"class.llvm::ArrayRef", ptr %5, i32 0, i32 0
  %7 = load ptr, ptr %4, align 8
  %8 = getelementptr inbounds [11 x ptr], ptr %7, i64 0, i64 0
  store ptr %8, ptr %6, align 8
  %9 = getelementptr inbounds nuw %"class.llvm::ArrayRef", ptr %5, i32 0, i32 1
  store i64 11, ptr %9, align 8
  ret void
}

; Function Attrs: mustprogress nounwind uwtable
define linkonce_odr noundef i64 @_ZSt4sizeIPN4llvm8MetadataELm11EEmRAT0__KT_(ptr noundef nonnull align 8 dereferenceable(88) %0) #1 comdat {
  %2 = alloca ptr, align 8
  store ptr %0, ptr %2, align 8
  ret i64 11
}

; Function Attrs: mustprogress nounwind uwtable
define dso_local noundef ptr @_ZN4llvm13DICompileUnit7getImplERNS_11LLVMContextEjPNS_8MetadataEPNS_8MDStringEbS6_jS6_jS4_S4_S4_S4_S4_mbbjbS6_S6_NS3_11StorageTypeEb(ptr noundef nonnull align 8 dereferenceable(8) %0, i32 noundef %1, ptr noundef %2, ptr noundef %3, i1 noundef zeroext %4, ptr noundef %5, i32 noundef %6, ptr noundef %7, i32 noundef %8, ptr noundef %9, ptr noundef %10, ptr noundef %11, ptr noundef %12, ptr noundef %13, i64 noundef %14, i1 noundef zeroext %15, i1 noundef zeroext %16, i32 noundef %17, i1 noundef zeroext %18, ptr noundef %19, ptr noundef %20, i32 noundef %21, i1 noundef zeroext %22) #1 align 2 {
  %24 = alloca ptr, align 8
  %25 = alloca i32, align 4
  %26 = alloca ptr, align 8
  %27 = alloca ptr, align 8
  %28 = alloca i8, align 1
  %29 = alloca ptr, align 8
  %30 = alloca i32, align 4
  %31 = alloca ptr, align 8
  %32 = alloca i32, align 4
  %33 = alloca ptr, align 8
  %34 = alloca ptr, align 8
  %35 = alloca ptr, align 8
  %36 = alloca ptr, align 8
  %37 = alloca ptr, align 8
  %38 = alloca i64, align 8
  %39 = alloca i8, align 1
  %40 = alloca i8, align 1
  %41 = alloca i32, align 4
  %42 = alloca i8, align 1
  %43 = alloca ptr, align 8
  %44 = alloca ptr, align 8
  %45 = alloca i32, align 4
  %46 = alloca i8, align 1
  %47 = alloca [11 x ptr], align 16
  %48 = alloca %"class.llvm::ArrayRef", align 8
  store ptr %0, ptr %24, align 8
  store i32 %1, ptr %25, align 4
  store ptr %2, ptr %26, align 8
  store ptr %3, ptr %27, align 8
  %49 = zext i1 %4 to i8
  store i8 %49, ptr %28, align 1
  store ptr %5, ptr %29, align 8
  store i32 %6, ptr %30, align 4
  store ptr %7, ptr %31, align 8
  store i32 %8, ptr %32, align 4
  store ptr %9, ptr %33, align 8
  store ptr %10, ptr %34, align 8
  store ptr %11, ptr %35, align 8
  store ptr %12, ptr %36, align 8
  store ptr %13, ptr %37, align 8
  store i64 %14, ptr %38, align 8
  %50 = zext i1 %15 to i8
  store i8 %50, ptr %39, align 1
  %51 = zext i1 %16 to i8
  store i8 %51, ptr %40, align 1
  store i32 %17, ptr %41, align 4
  %52 = zext i1 %18 to i8
  store i8 %52, ptr %42, align 1
  store ptr %19, ptr %43, align 8
  store ptr %20, ptr %44, align 8
  store i32 %21, ptr %45, align 4
  %53 = zext i1 %22 to i8
  store i8 %53, ptr %46, align 1
  %54 = load ptr, ptr %26, align 8
  store ptr %54, ptr %47, align 8
  %55 = getelementptr inbounds ptr, ptr %47, i64 1
  %56 = load ptr, ptr %27, align 8
  store ptr %56, ptr %55, align 8
  %57 = getelementptr inbounds ptr, ptr %47, i64 2
  %58 = load ptr, ptr %29, align 8
  store ptr %58, ptr %57, align 8
  %59 = getelementptr inbounds ptr, ptr %47, i64 3
  %60 = load ptr, ptr %31, align 8
  store ptr %60, ptr %59, align 8
  %61 = getelementptr inbounds ptr, ptr %47, i64 4
  %62 = load ptr, ptr %33, align 8
  store ptr %62, ptr %61, align 8
  %63 = getelementptr inbounds ptr, ptr %47, i64 5
  %64 = load ptr, ptr %34, align 8
  store ptr %64, ptr %63, align 8
  %65 = getelementptr inbounds ptr, ptr %47, i64 6
  %66 = load ptr, ptr %35, align 8
  store ptr %66, ptr %65, align 8
  %67 = getelementptr inbounds ptr, ptr %47, i64 7
  %68 = load ptr, ptr %36, align 8
  store ptr %68, ptr %67, align 8
  %69 = getelementptr inbounds ptr, ptr %47, i64 8
  %70 = load ptr, ptr %37, align 8
  store ptr %70, ptr %69, align 8
  %71 = getelementptr inbounds ptr, ptr %47, i64 9
  %72 = load ptr, ptr %43, align 8
  store ptr %72, ptr %71, align 8
  %73 = getelementptr inbounds ptr, ptr %47, i64 10
  %74 = load ptr, ptr %44, align 8
  store ptr %74, ptr %73, align 8
  %75 = call noundef i64 @_ZSt4sizeIPN4llvm8MetadataELm11EEmRAT0__KT_(ptr noundef nonnull align 8 dereferenceable(88) %47) #2
  %76 = load i32, ptr %45, align 4
  %77 = call noundef ptr @_ZN4llvm6MDNodenwEmmNS_8Metadata11StorageTypeE(i64 noundef 48, i64 noundef %75, i32 noundef %76)
  %78 = load ptr, ptr %24, align 8
  %79 = load i32, ptr %45, align 4
  %80 = load i32, ptr %25, align 4
  %81 = load i8, ptr %28, align 1
  %82 = trunc i8 %81 to i1
  %83 = load i32, ptr %30, align 4
  %84 = load i32, ptr %32, align 4
  %85 = load i64, ptr %38, align 8
  %86 = load i8, ptr %39, align 1
  %87 = trunc i8 %86 to i1
  %88 = load i8, ptr %40, align 1
  %89 = trunc i8 %88 to i1
  %90 = load i32, ptr %41, align 4
  %91 = load i8, ptr %42, align 1
  %92 = trunc i8 %91 to i1
  call void @_ZN4llvm8ArrayRefIPNS_8MetadataEEC2ILm11EEERAT__KS2_(ptr noundef nonnull align 8 dereferenceable(16) %48, ptr noundef nonnull align 8 dereferenceable(88) %47)
  call void @_ZN4llvm13DICompileUnitC1ERNS_11LLVMContextENS_8Metadata11StorageTypeEjbjjmbbjbNS_8ArrayRefIPS3_EE(ptr noundef nonnull align 8 dereferenceable(44) %77, ptr noundef nonnull align 8 dereferenceable(8) %78, i32 noundef %79, i32 noundef %80, i1 noundef zeroext %82, i32 noundef %83, i32 noundef %84, i64 noundef %85, i1 noundef zeroext %87, i1 noundef zeroext %89, i32 noundef %90, i1 noundef zeroext %92, ptr noundef byval(%"class.llvm::ArrayRef") align 8 %48)
  %93 = load i32, ptr %45, align 4
  %94 = call noundef ptr @_ZN4llvm6MDNode9storeImplINS_13DICompileUnitEEEPT_S4_NS_8Metadata11StorageTypeE(ptr noundef %77, i32 noundef %93)
  ret ptr %94
}