; Function Attrs: mustprogress nounwind uwtable
define dso_local noundef ptr @_ZN4llvm13DICompileUnit7getImplERNS_11LLVMContextEjPNS_8MetadataEPNS_8MDStringEbS6_jS6_jS4_S4_S4_S4_S4_mbbjbS6_S6_NS3_11StorageTypeEb(ptr noundef nonnull align 8 dereferenceable(8) %0, i32 noundef %1, ptr noundef %2, ptr noundef %3, i1 noundef zeroext %4, ptr noundef %5, i32 noundef %6, ptr noundef %7, i32 noundef %8, ptr noundef %9, ptr noundef %10, ptr noundef %11, ptr noundef %12, ptr noundef %13, i64 noundef %14, i1 noundef zeroext %15, i1 noundef zeroext %16, i32 noundef %17, i1 noundef zeroext %18, ptr noundef %19, ptr noundef %20, i32 noundef %21, i1 noundef zeroext %22) local_unnamed_addr #0 align 2 {
  %24 = alloca [11 x ptr], align 16
  %25 = alloca %"class.llvm::ArrayRef", align 8
  store ptr %2, ptr %24, align 16
  %26 = getelementptr inbounds i8, ptr %24, i64 8
  store ptr %3, ptr %26, align 8
  %27 = getelementptr inbounds i8, ptr %24, i64 16
  store ptr %5, ptr %27, align 16
  %28 = getelementptr inbounds i8, ptr %24, i64 24
  store ptr %7, ptr %28, align 8
  %29 = getelementptr inbounds i8, ptr %24, i64 32
  store ptr %9, ptr %29, align 16
  %30 = getelementptr inbounds i8, ptr %24, i64 40
  store ptr %10, ptr %30, align 8
  %31 = getelementptr inbounds i8, ptr %24, i64 48
  store ptr %11, ptr %31, align 16
  %32 = getelementptr inbounds i8, ptr %24, i64 56
  store ptr %12, ptr %32, align 8
  %33 = getelementptr inbounds i8, ptr %24, i64 64
  store ptr %13, ptr %33, align 16
  %34 = getelementptr inbounds i8, ptr %24, i64 72
  store ptr %19, ptr %34, align 8
  %35 = getelementptr inbounds i8, ptr %24, i64 80
  store ptr %20, ptr %35, align 16
  %36 = tail call noundef ptr @_ZN4llvm6MDNodenwEmmNS_8Metadata11StorageTypeE(i64 noundef 48, i64 noundef 11, i32 noundef %21) #24
  store ptr %24, ptr %25, align 8
  %37 = getelementptr inbounds nuw i8, ptr %25, i64 8
  store i64 11, ptr %37, align 8
  call void @_ZN4llvm13DICompileUnitC1ERNS_11LLVMContextENS_8Metadata11StorageTypeEjbjjmbbjbNS_8ArrayRefIPS3_EE(ptr noundef nonnull align 8 dereferenceable(44) %36, ptr noundef nonnull align 8 dereferenceable(8) %0, i32 noundef %21, i32 noundef %1, i1 noundef zeroext %4, i32 noundef %6, i32 noundef %8, i64 noundef %14, i1 noundef zeroext %15, i1 noundef zeroext %16, i32 noundef %17, i1 noundef zeroext %18, ptr noundef nonnull byval(%"class.llvm::ArrayRef") align 8 %25) #24
  %cond.i = icmp eq i32 %21, 1
  br i1 %cond.i, label %38, label %_ZN4llvm6MDNode9storeImplINS_13DICompileUnitEEEPT_S4_NS_8Metadata11StorageTypeE.exit

38:                                               ; preds = %23
  call void @_ZN4llvm6MDNode22storeDistinctInContextEv(ptr noundef nonnull align 8 dereferenceable(16) %36) #24
  br label %_ZN4llvm6MDNode9storeImplINS_13DICompileUnitEEEPT_S4_NS_8Metadata11StorageTypeE.exit

_ZN4llvm6MDNode9storeImplINS_13DICompileUnitEEEPT_S4_NS_8Metadata11StorageTypeE.exit: ; preds = %23, %38
  ret ptr %36
}